target datalayout = "e-m:e-p270:32:32-p271:32:32-p272:64:64-i64:64-i128:128-f80:128-n8:16:32:64-S128"
target triple = "x86_64-pc-linux-gnu"

%class.LIR_Opr = type { i64 }
%class.LIRItem = type { ptr, ptr, %class.LIR_Opr, i8, %class.LIR_Opr }
%class.LIRGenerator = type { %class.InstructionVisitor, %class.BlockClosure, ptr, ptr, %class.PhiResolverState, ptr, i32, %class.BitMap2D, ptr, %class.GrowableArray.0, %class.GrowableArray.3, %class.GrowableArray.6, ptr }
%class.InstructionVisitor = type { ptr }
%class.BlockClosure = type { ptr }
%class.PhiResolverState = type { %class.GrowableArray, %class.GrowableArray, %class.GrowableArray }
%class.GrowableArray = type { %class.GrowableArrayWithAllocator, %class.GrowableArrayMetadata }
%class.GrowableArrayWithAllocator = type { %class.GrowableArrayView }
%class.GrowableArrayView = type { %class.GrowableArrayBase, ptr }
%class.GrowableArrayBase = type { i32, i32 }
%class.GrowableArrayMetadata = type { i64 }
%class.BitMap2D = type { %class.ResourceBitMap, i64 }
%class.ResourceBitMap = type { %class.GrowableBitMap }
%class.GrowableBitMap = type { %class.BitMap }
%class.BitMap = type { ptr, i64 }
%class.GrowableArray.0 = type { %class.GrowableArrayWithAllocator.1, %class.GrowableArrayMetadata }
%class.GrowableArrayWithAllocator.1 = type { %class.GrowableArrayView.2 }
%class.GrowableArrayView.2 = type { %class.GrowableArrayBase, ptr }
%class.GrowableArray.3 = type { %class.GrowableArrayWithAllocator.4, %class.GrowableArrayMetadata }
%class.GrowableArrayWithAllocator.4 = type { %class.GrowableArrayView.5 }
%class.GrowableArrayView.5 = type { %class.GrowableArrayBase, ptr }
%class.GrowableArray.6 = type { %class.GrowableArrayWithAllocator.7, %class.GrowableArrayMetadata }
%class.GrowableArrayWithAllocator.7 = type { %class.GrowableArrayView.8 }
%class.GrowableArrayView.8 = type { %class.GrowableArrayBase, ptr }
%class.Instruction = type { ptr, i32, i32, i32, ptr, ptr, ptr, %class.LIR_Opr, i32, ptr, ptr, ptr, ptr }
%class.Convert = type { %class.Instruction, i32, ptr }

@_ZN11LIR_OprFact10illegalOprE = external global %class.LIR_Opr, align 8

; Function Attrs: mustprogress nounwind uwtable
define linkonce_odr hidden noundef i64 @_ZNK7LIR_Opr5valueEv(ptr noundef nonnull align 8 dereferenceable(8) %0) #1 comdat align 2 {
  %2 = alloca ptr, align 8
  store ptr %0, ptr %2, align 8
  %3 = load ptr, ptr %2, align 8
  %4 = getelementptr inbounds %class.LIR_Opr, ptr %3, i32 0, i32 0
  %5 = load i64, ptr %4, align 8
  ret i64 %5
}

; Function Attrs: mustprogress nounwind uwtable
define linkonce_odr hidden noundef zeroext i1 @_ZNK7LIR_Opr16check_value_maskEll(ptr noundef nonnull align 8 dereferenceable(8) %0, i64 noundef %1, i64 noundef %2) #1 comdat align 2 {
  %4 = alloca ptr, align 8
  %5 = alloca i64, align 8
  %6 = alloca i64, align 8
  store ptr %0, ptr %4, align 8
  store i64 %1, ptr %5, align 8
  store i64 %2, ptr %6, align 8
  %7 = load ptr, ptr %4, align 8
  %8 = call noundef i64 @_ZNK7LIR_Opr5valueEv(ptr noundef nonnull align 8 dereferenceable(8) %7)
  %9 = load i64, ptr %5, align 8
  %10 = and i64 %8, %9
  %11 = load i64, ptr %6, align 8
  %12 = icmp eq i64 %10, %11
  ret i1 %12
}

; Function Attrs: mustprogress nounwind uwtable
define linkonce_odr hidden void @_ZNK7LIR_Opr13validate_typeEv(ptr noundef nonnull align 8 dereferenceable(8) %0) #1 comdat align 2 {
  %2 = alloca ptr, align 8
  store ptr %0, ptr %2, align 8
  ret void
}

; Function Attrs: mustprogress nounwind uwtable
define linkonce_odr hidden noundef ptr @_ZNK11Instruction4typeEv(ptr noundef nonnull align 8 dereferenceable(96) %0) #1 comdat align 2 {
  %2 = alloca ptr, align 8
  store ptr %0, ptr %2, align 8
  %3 = load ptr, ptr %2, align 8
  %4 = getelementptr inbounds %class.Instruction, ptr %3, i32 0, i32 4
  %5 = load ptr, ptr %4, align 8
  ret ptr %5
}

; Function Attrs: mustprogress nounwind uwtable
define linkonce_odr hidden noundef ptr @_ZNK7LIRItem5valueEv(ptr noundef nonnull align 8 dereferenceable(40) %0) #1 comdat align 2 {
  %2 = alloca ptr, align 8
  store ptr %0, ptr %2, align 8
  %3 = load ptr, ptr %2, align 8
  %4 = getelementptr inbounds %class.LIRItem, ptr %3, i32 0, i32 0
  %5 = load ptr, ptr %4, align 8
  ret ptr %5
}

; Function Attrs: mustprogress nounwind uwtable
define linkonce_odr hidden noundef i32 @_ZNK7LIR_Opr10kind_fieldEv(ptr noundef nonnull align 8 dereferenceable(8) %0) #1 comdat align 2 {
  %2 = alloca ptr, align 8
  store ptr %0, ptr %2, align 8
  %3 = load ptr, ptr %2, align 8
  %4 = call noundef i64 @_ZNK7LIR_Opr5valueEv(ptr noundef nonnull align 8 dereferenceable(8) %3)
  %5 = and i64 %4, 7
  %6 = trunc i64 %5 to i32
  ret i32 %6
}

; Function Attrs: mustprogress nounwind uwtable
define linkonce_odr hidden noundef zeroext i1 @_ZNK7LIR_Opr15is_fpu_registerEv(ptr noundef nonnull align 8 dereferenceable(8) %0) #1 comdat align 2 {
  %2 = alloca ptr, align 8
  store ptr %0, ptr %2, align 8
  %3 = load ptr, ptr %2, align 8
  call void @_ZNK7LIR_Opr13validate_typeEv(ptr noundef nonnull align 8 dereferenceable(8) %3)
  %4 = call noundef zeroext i1 @_ZNK7LIR_Opr16check_value_maskEll(ptr noundef nonnull align 8 dereferenceable(8) %3, i64 noundef 7, i64 noundef 5)
  ret i1 %4
}

; Function Attrs: mustprogress nounwind uwtable
define linkonce_odr hidden noundef zeroext i1 @_ZNK7LIR_Opr15is_cpu_registerEv(ptr noundef nonnull align 8 dereferenceable(8) %0) #1 comdat align 2 {
  %2 = alloca ptr, align 8
  store ptr %0, ptr %2, align 8
  %3 = load ptr, ptr %2, align 8
  call void @_ZNK7LIR_Opr13validate_typeEv(ptr noundef nonnull align 8 dereferenceable(8) %3)
  %4 = call noundef zeroext i1 @_ZNK7LIR_Opr16check_value_maskEll(ptr noundef nonnull align 8 dereferenceable(8) %3, i64 noundef 7, i64 noundef 3)
  ret i1 %4
}

; Function Attrs: mustprogress nounwind uwtable
define linkonce_odr hidden i64 @_ZNK11Instruction7operandEv(ptr noundef nonnull align 8 dereferenceable(96) %0) #1 comdat align 2 {
  %2 = alloca %class.LIR_Opr, align 8
  %3 = alloca ptr, align 8
  store ptr %0, ptr %3, align 8
  %4 = load ptr, ptr %3, align 8
  %5 = getelementptr inbounds %class.Instruction, ptr %4, i32 0, i32 7
  call void @llvm.memcpy.p0.p0.i64(ptr align 8 %2, ptr align 8 %5, i64 8, i1 false)
  %6 = getelementptr inbounds %class.LIR_Opr, ptr %2, i32 0, i32 0
  %7 = load i64, ptr %6, align 8
  ret i64 %7
}

; Function Attrs: mustprogress nounwind uwtable
define linkonce_odr hidden void @_ZN11Instruction11set_operandE7LIR_Opr(ptr noundef nonnull align 8 dereferenceable(96) %0, i64 %1) #1 comdat align 2 {
  %3 = alloca %class.LIR_Opr, align 8
  %4 = alloca ptr, align 8
  %5 = getelementptr inbounds %class.LIR_Opr, ptr %3, i32 0, i32 0
  store i64 %1, ptr %5, align 8
  store ptr %0, ptr %4, align 8
  %6 = load ptr, ptr %4, align 8
  %7 = getelementptr inbounds %class.Instruction, ptr %6, i32 0, i32 7
  call void @llvm.memcpy.p0.p0.i64(ptr align 8 %7, ptr align 8 %3, i64 8, i1 false)
  ret void
}

; Function Attrs: mustprogress nounwind uwtable
define linkonce_odr hidden noundef ptr @_ZNK7LIRItem3genEv(ptr noundef nonnull align 8 dereferenceable(40) %0) #1 comdat align 2 {
  %2 = alloca ptr, align 8
  store ptr %0, ptr %2, align 8
  %3 = load ptr, ptr %2, align 8
  %4 = getelementptr inbounds %class.LIRItem, ptr %3, i32 0, i32 1
  %5 = load ptr, ptr %4, align 8
  ret ptr %5
}

; Function Attrs: mustprogress nounwind uwtable
define linkonce_odr hidden i64 @_ZN12LIRGenerator12new_registerEP9ValueType(ptr noundef nonnull align 8 dereferenceable(232) %0, ptr noundef %1) #1 comdat align 2 {
  %3 = alloca %class.LIR_Opr, align 8
  %4 = alloca ptr, align 8
  %5 = alloca ptr, align 8
  store ptr %0, ptr %4, align 8
  store ptr %1, ptr %5, align 8
  %6 = load ptr, ptr %4, align 8
  %7 = load ptr, ptr %5, align 8
  %8 = call noundef zeroext i8 @_Z12as_BasicTypeP9ValueType(ptr noundef %7)
  %9 = call i64 @_ZN12LIRGenerator12new_registerE9BasicType(ptr noundef nonnull align 8 dereferenceable(232) %6, i8 noundef zeroext %8)
  %10 = getelementptr inbounds %class.LIR_Opr, ptr %3, i32 0, i32 0
  store i64 %9, ptr %10, align 8
  %11 = getelementptr inbounds %class.LIR_Opr, ptr %3, i32 0, i32 0
  %12 = load i64, ptr %11, align 8
  ret i64 %12
}

; Function Attrs: mustprogress nounwind uwtable
define linkonce_odr hidden noundef ptr @_ZNK7LIRItem4typeEv(ptr noundef nonnull align 8 dereferenceable(40) %0) #1 comdat align 2 {
  %2 = alloca ptr, align 8
  store ptr %0, ptr %2, align 8
  %3 = load ptr, ptr %2, align 8
  %4 = call noundef ptr @_ZNK7LIRItem5valueEv(ptr noundef nonnull align 8 dereferenceable(40) %3)
  %5 = call noundef ptr @_ZNK11Instruction4typeEv(ptr noundef nonnull align 8 dereferenceable(96) %4)
  ret ptr %5
}

; Function Attrs: mustprogress nounwind uwtable
define linkonce_odr hidden noundef zeroext i1 @_ZNK7LIR_Opr10is_illegalEv(ptr noundef nonnull align 8 dereferenceable(8) %0) #1 comdat align 2 {
  %2 = alloca ptr, align 8
  store ptr %0, ptr %2, align 8
  %3 = load ptr, ptr %2, align 8
  %4 = call noundef i32 @_ZNK7LIR_Opr10kind_fieldEv(ptr noundef nonnull align 8 dereferenceable(8) %3)
  %5 = icmp eq i32 %4, 7
  ret i1 %5
}

; Function Attrs: mustprogress nounwind uwtable
define linkonce_odr hidden noundef zeroext i1 @_ZNK7LIR_Opr11is_registerEv(ptr noundef nonnull align 8 dereferenceable(8) %0) #1 comdat align 2 {
  %2 = alloca ptr, align 8
  store ptr %0, ptr %2, align 8
  %3 = load ptr, ptr %2, align 8
  %4 = call noundef zeroext i1 @_ZNK7LIR_Opr15is_cpu_registerEv(ptr noundef nonnull align 8 dereferenceable(8) %3)
  br i1 %4, label %7, label %5

5:                                                ; preds = %1
  %6 = call noundef zeroext i1 @_ZNK7LIR_Opr15is_fpu_registerEv(ptr noundef nonnull align 8 dereferenceable(8) %3)
  br label %7

7:                                                ; preds = %5, %1
  %8 = phi i1 [ true, %1 ], [ %6, %5 ]
  ret i1 %8
}

; Function Attrs: mustprogress nounwind uwtable
define linkonce_odr hidden noundef ptr @_ZN7LIR_OprptEv(ptr noundef nonnull align 8 dereferenceable(8) %0) #1 comdat align 2 {
  %2 = alloca ptr, align 8
  store ptr %0, ptr %2, align 8
  %3 = load ptr, ptr %2, align 8
  ret ptr %3
}

; Function Attrs: mustprogress nounwind uwtable
define linkonce_odr hidden void @_ZN7LIRItem15set_instructionEP11Instruction(ptr noundef nonnull align 8 dereferenceable(40) %0, ptr noundef %1) #1 comdat align 2 {
  %3 = alloca ptr, align 8
  %4 = alloca ptr, align 8
  %5 = alloca %class.LIR_Opr, align 8
  store ptr %0, ptr %3, align 8
  store ptr %1, ptr %4, align 8
  %6 = load ptr, ptr %3, align 8
  %7 = load ptr, ptr %4, align 8
  %8 = getelementptr inbounds %class.LIRItem, ptr %6, i32 0, i32 0
  store ptr %7, ptr %8, align 8
  %9 = getelementptr inbounds %class.LIRItem, ptr %6, i32 0, i32 2
  call void @llvm.memcpy.p0.p0.i64(ptr align 8 %9, ptr align 8 @_ZN11LIR_OprFact10illegalOprE, i64 8, i1 false)
  %10 = getelementptr inbounds %class.LIRItem, ptr %6, i32 0, i32 0
  %11 = load ptr, ptr %10, align 8
  %12 = icmp ne ptr %11, null
  br i1 %12, label %13, label %23

13:                                               ; preds = %2
  %14 = getelementptr inbounds %class.LIRItem, ptr %6, i32 0, i32 1
  %15 = load ptr, ptr %14, align 8
  %16 = getelementptr inbounds %class.LIRItem, ptr %6, i32 0, i32 0
  %17 = load ptr, ptr %16, align 8
  call void @_ZN12LIRGenerator4walkEP11Instruction(ptr noundef nonnull align 8 dereferenceable(232) %15, ptr noundef %17)
  %18 = getelementptr inbounds %class.LIRItem, ptr %6, i32 0, i32 0
  %19 = load ptr, ptr %18, align 8
  %20 = call i64 @_ZNK11Instruction7operandEv(ptr noundef nonnull align 8 dereferenceable(96) %19)
  %21 = getelementptr inbounds %class.LIR_Opr, ptr %5, i32 0, i32 0
  store i64 %20, ptr %21, align 8
  %22 = getelementptr inbounds %class.LIRItem, ptr %6, i32 0, i32 2
  call void @llvm.memcpy.p0.p0.i64(ptr align 8 %22, ptr align 8 %5, i64 8, i1 false)
  br label %23

23:                                               ; preds = %13, %2
  %24 = getelementptr inbounds %class.LIRItem, ptr %6, i32 0, i32 4
  call void @llvm.memcpy.p0.p0.i64(ptr align 8 %24, ptr align 8 @_ZN11LIR_OprFact10illegalOprE, i64 8, i1 false)
  ret void
}

; Function Attrs: mustprogress nounwind uwtable
define linkonce_odr hidden void @_ZN7LIR_OprC2Ev(ptr noundef nonnull align 8 dereferenceable(8) %0) unnamed_addr #1 comdat align 2 {
  %2 = alloca ptr, align 8
  store ptr %0, ptr %2, align 8
  %3 = load ptr, ptr %2, align 8
  %4 = getelementptr inbounds %class.LIR_Opr, ptr %3, i32 0, i32 0
  store i64 0, ptr %4, align 8
  ret void
}

; Function Attrs: mustprogress nounwind uwtable
define linkonce_odr hidden void @_ZN12LIRGenerator10set_resultEP11Instruction7LIR_Opr(ptr noundef nonnull align 8 dereferenceable(232) %0, ptr noundef %1, i64 %2) #1 comdat align 2 {
  %4 = alloca %class.LIR_Opr, align 8
  %5 = alloca ptr, align 8
  %6 = alloca ptr, align 8
  %7 = alloca %class.LIR_Opr, align 8
  %8 = getelementptr inbounds %class.LIR_Opr, ptr %4, i32 0, i32 0
  store i64 %2, ptr %8, align 8
  store ptr %0, ptr %5, align 8
  store ptr %1, ptr %6, align 8
  %9 = load ptr, ptr %6, align 8
  call void @llvm.memcpy.p0.p0.i64(ptr align 8 %7, ptr align 8 %4, i64 8, i1 false)
  %10 = getelementptr inbounds %class.LIR_Opr, ptr %7, i32 0, i32 0
  %11 = load i64, ptr %10, align 8
  call void @_ZN11Instruction11set_operandE7LIR_Opr(ptr noundef nonnull align 8 dereferenceable(96) %9, i64 %11)
  ret void
}

; Function Attrs: mustprogress nounwind uwtable
define linkonce_odr hidden noundef i32 @_ZNK7Convert2opEv(ptr noundef nonnull align 8 dereferenceable(112) %0) #1 comdat align 2 {
  %2 = alloca ptr, align 8
  store ptr %0, ptr %2, align 8
  %3 = load ptr, ptr %2, align 8
  %4 = getelementptr inbounds %class.Convert, ptr %3, i32 0, i32 1
  %5 = load i32, ptr %4, align 8
  ret i32 %5
}

; Function Attrs: mustprogress nounwind uwtable
define linkonce_odr hidden noundef ptr @_ZNK12LIRGenerator3lirEv(ptr noundef nonnull align 8 dereferenceable(232) %0) #1 comdat align 2 {
  %2 = alloca ptr, align 8
  store ptr %0, ptr %2, align 8
  %3 = load ptr, ptr %2, align 8
  %4 = getelementptr inbounds %class.LIRGenerator, ptr %3, i32 0, i32 8
  %5 = load ptr, ptr %4, align 8
  ret ptr %5
}

; Function Attrs: mustprogress nounwind uwtable
define linkonce_odr hidden noundef ptr @_ZN12LIRGenerator3genEv(ptr noundef nonnull align 8 dereferenceable(232) %0) #1 comdat align 2 {
  %2 = alloca ptr, align 8
  store ptr %0, ptr %2, align 8
  %3 = load ptr, ptr %2, align 8
  ret ptr %3
}

; Function Attrs: mustprogress nounwind uwtable
define linkonce_odr hidden i64 @_ZN7LIRItem6resultEv(ptr noundef nonnull align 8 dereferenceable(40) %0) #1 comdat align 2 {
  %2 = alloca %class.LIR_Opr, align 8
  %3 = alloca ptr, align 8
  %4 = alloca %class.LIR_Opr, align 8
  %5 = alloca %class.LIR_Opr, align 8
  %6 = alloca %class.LIR_Opr, align 8
  store ptr %0, ptr %3, align 8
  %7 = load ptr, ptr %3, align 8
  %8 = getelementptr inbounds %class.LIRItem, ptr %7, i32 0, i32 3
  %9 = load i8, ptr %8, align 8
  %10 = trunc i8 %9 to i1
  br i1 %10, label %11, label %36

11:                                               ; preds = %1
  %12 = getelementptr inbounds %class.LIRItem, ptr %7, i32 0, i32 2
  %13 = call noundef ptr @_ZN7LIR_OprptEv(ptr noundef nonnull align 8 dereferenceable(8) %12)
  %14 = call noundef zeroext i1 @_ZNK7LIR_Opr11is_registerEv(ptr noundef nonnull align 8 dereferenceable(8) %13)
  br i1 %14, label %15, label %36

15:                                               ; preds = %11
  %16 = getelementptr inbounds %class.LIRItem, ptr %7, i32 0, i32 4
  %17 = call noundef ptr @_ZN7LIR_OprptEv(ptr noundef nonnull align 8 dereferenceable(8) %16)
  %18 = call noundef zeroext i1 @_ZNK7LIR_Opr10is_illegalEv(ptr noundef nonnull align 8 dereferenceable(8) %17)
  br i1 %18, label %19, label %34

19:                                               ; preds = %15
  %20 = getelementptr inbounds %class.LIRItem, ptr %7, i32 0, i32 1
  %21 = load ptr, ptr %20, align 8
  %22 = call noundef ptr @_ZNK7LIRItem4typeEv(ptr noundef nonnull align 8 dereferenceable(40) %7)
  %23 = call i64 @_ZN12LIRGenerator12new_registerEP9ValueType(ptr noundef nonnull align 8 dereferenceable(232) %21, ptr noundef %22)
  %24 = getelementptr inbounds %class.LIR_Opr, ptr %4, i32 0, i32 0
  store i64 %23, ptr %24, align 8
  %25 = getelementptr inbounds %class.LIRItem, ptr %7, i32 0, i32 4
  call void @llvm.memcpy.p0.p0.i64(ptr align 8 %25, ptr align 8 %4, i64 8, i1 false)
  %26 = call noundef ptr @_ZNK7LIRItem3genEv(ptr noundef nonnull align 8 dereferenceable(40) %7)
  %27 = call noundef ptr @_ZNK12LIRGenerator3lirEv(ptr noundef nonnull align 8 dereferenceable(232) %26)
  %28 = getelementptr inbounds %class.LIRItem, ptr %7, i32 0, i32 2
  call void @llvm.memcpy.p0.p0.i64(ptr align 8 %5, ptr align 8 %28, i64 8, i1 false)
  %29 = getelementptr inbounds %class.LIRItem, ptr %7, i32 0, i32 4
  call void @llvm.memcpy.p0.p0.i64(ptr align 8 %6, ptr align 8 %29, i64 8, i1 false)
  %30 = getelementptr inbounds %class.LIR_Opr, ptr %5, i32 0, i32 0
  %31 = load i64, ptr %30, align 8
  %32 = getelementptr inbounds %class.LIR_Opr, ptr %6, i32 0, i32 0
  %33 = load i64, ptr %32, align 8
  call void @_ZN8LIR_List4moveE7LIR_OprS0_P12CodeEmitInfo(ptr noundef nonnull align 8 dereferenceable(32) %27, i64 %31, i64 %33, ptr noundef null)
  br label %34

34:                                               ; preds = %19, %15
  %35 = getelementptr inbounds %class.LIRItem, ptr %7, i32 0, i32 4
  call void @llvm.memcpy.p0.p0.i64(ptr align 8 %2, ptr align 8 %35, i64 8, i1 false)
  br label %38

36:                                               ; preds = %11, %1
  %37 = getelementptr inbounds %class.LIRItem, ptr %7, i32 0, i32 2
  call void @llvm.memcpy.p0.p0.i64(ptr align 8 %2, ptr align 8 %37, i64 8, i1 false)
  br label %38

38:                                               ; preds = %36, %34
  %39 = getelementptr inbounds %class.LIR_Opr, ptr %2, i32 0, i32 0
  %40 = load i64, ptr %39, align 8
  ret i64 %40
}

; Function Attrs: mustprogress nounwind uwtable
define linkonce_odr hidden void @_ZN7LIRItemC2EP11InstructionP12LIRGenerator(ptr noundef nonnull align 8 dereferenceable(40) %0, ptr noundef %1, ptr noundef %2) unnamed_addr #1 comdat align 2 {
  %4 = alloca ptr, align 8
  %5 = alloca ptr, align 8
  %6 = alloca ptr, align 8
  store ptr %0, ptr %4, align 8
  store ptr %1, ptr %5, align 8
  store ptr %2, ptr %6, align 8
  %7 = load ptr, ptr %4, align 8
  %8 = getelementptr inbounds %class.LIRItem, ptr %7, i32 0, i32 2
  call void @_ZN7LIR_OprC2Ev(ptr noundef nonnull align 8 dereferenceable(8) %8)
  %9 = getelementptr inbounds %class.LIRItem, ptr %7, i32 0, i32 4
  call void @_ZN7LIR_OprC2Ev(ptr noundef nonnull align 8 dereferenceable(8) %9)
  %10 = getelementptr inbounds %class.LIRItem, ptr %7, i32 0, i32 3
  store i8 0, ptr %10, align 8
  %11 = load ptr, ptr %6, align 8
  %12 = getelementptr inbounds %class.LIRItem, ptr %7, i32 0, i32 1
  store ptr %11, ptr %12, align 8
  %13 = load ptr, ptr %5, align 8
  call void @_ZN7LIRItem15set_instructionEP11Instruction(ptr noundef nonnull align 8 dereferenceable(40) %7, ptr noundef %13)
  ret void
}

; Function Attrs: mustprogress nounwind uwtable
define linkonce_odr hidden noundef ptr @_ZNK7Convert5valueEv(ptr noundef nonnull align 8 dereferenceable(112) %0) #1 comdat align 2 {
  %2 = alloca ptr, align 8
  store ptr %0, ptr %2, align 8
  %3 = load ptr, ptr %2, align 8
  %4 = getelementptr inbounds %class.Convert, ptr %3, i32 0, i32 2
  %5 = load ptr, ptr %4, align 8
  ret ptr %5
}

; Function Attrs: mustprogress nounwind uwtable
define hidden void @_ZN12LIRGenerator10do_ConvertEP7Convert(ptr noundef nonnull align 8 dereferenceable(232) %0, ptr noundef %1) unnamed_addr #1 align 2 {
  %3 = alloca ptr, align 8
  %4 = alloca ptr, align 8
  %5 = alloca %class.LIRItem, align 8
  %6 = alloca %class.LIR_Opr, align 8
  %7 = alloca %class.LIR_Opr, align 8
  %8 = alloca %class.LIR_Opr, align 8
  %9 = alloca %class.LIR_Opr, align 8
  %10 = alloca %class.LIR_Opr, align 8
  store ptr %0, ptr %3, align 8
  store ptr %1, ptr %4, align 8
  %11 = load ptr, ptr %3, align 8
  %12 = load ptr, ptr %4, align 8
  %13 = call noundef ptr @_ZNK7Convert5valueEv(ptr noundef nonnull align 8 dereferenceable(112) %12)
  call void @_ZN7LIRItemC2EP11InstructionP12LIRGenerator(ptr noundef nonnull align 8 dereferenceable(40) %5, ptr noundef %13, ptr noundef %11)
  call void @_ZN7LIRItem9load_itemEv(ptr noundef nonnull align 8 dereferenceable(40) %5)
  %14 = call i64 @_ZN7LIRItem6resultEv(ptr noundef nonnull align 8 dereferenceable(40) %5)
  %15 = getelementptr inbounds %class.LIR_Opr, ptr %6, i32 0, i32 0
  store i64 %14, ptr %15, align 8
  %16 = load ptr, ptr %4, align 8
  %17 = call i64 @_ZN12LIRGenerator5rlockEP11Instruction(ptr noundef nonnull align 8 dereferenceable(232) %11, ptr noundef %16)
  %18 = getelementptr inbounds %class.LIR_Opr, ptr %7, i32 0, i32 0
  store i64 %17, ptr %18, align 8
  %19 = call noundef ptr @_ZN12LIRGenerator3genEv(ptr noundef nonnull align 8 dereferenceable(232) %11)
  %20 = call noundef ptr @_ZNK12LIRGenerator3lirEv(ptr noundef nonnull align 8 dereferenceable(232) %19)
  %21 = load ptr, ptr %4, align 8
  %22 = call noundef i32 @_ZNK7Convert2opEv(ptr noundef nonnull align 8 dereferenceable(112) %21)
  call void @llvm.memcpy.p0.p0.i64(ptr align 8 %8, ptr align 8 %6, i64 8, i1 false)
  call void @llvm.memcpy.p0.p0.i64(ptr align 8 %9, ptr align 8 %7, i64 8, i1 false)
  %23 = getelementptr inbounds %class.LIR_Opr, ptr %8, i32 0, i32 0
  %24 = load i64, ptr %23, align 8
  %25 = getelementptr inbounds %class.LIR_Opr, ptr %9, i32 0, i32 0
  %26 = load i64, ptr %25, align 8
  call void @_ZN8LIR_List7convertEN9Bytecodes4CodeE7LIR_OprS2_P14ConversionStub(ptr noundef nonnull align 8 dereferenceable(32) %20, i32 noundef %22, i64 %24, i64 %26, ptr noundef null)
  %27 = load ptr, ptr %4, align 8
  call void @llvm.memcpy.p0.p0.i64(ptr align 8 %10, ptr align 8 %7, i64 8, i1 false)
  %28 = getelementptr inbounds %class.LIR_Opr, ptr %10, i32 0, i32 0
  %29 = load i64, ptr %28, align 8
  call void @_ZN12LIRGenerator10set_resultEP11Instruction7LIR_Opr(ptr noundef nonnull align 8 dereferenceable(232) %11, ptr noundef %27, i64 %29)
  ret void
}