; Function Attrs: mustprogress nounwind uwtable
define hidden void @_ZN12LIRGenerator10do_ConvertEP7Convert(ptr noundef nonnull align 8 dereferenceable(232) %0, ptr noundef %1) unnamed_addr #0 align 2 {
  %3 = alloca %class.LIRItem, align 8
  %4 = getelementptr inbounds i8, ptr %1, i64 104
  %5 = load ptr, ptr %4, align 8
  %6 = getelementptr inbounds i8, ptr %3, i64 16
  %7 = getelementptr inbounds i8, ptr %3, i64 32
  %8 = getelementptr inbounds i8, ptr %3, i64 24
  store i8 0, ptr %8, align 8
  %9 = getelementptr inbounds i8, ptr %3, i64 8
  store ptr %0, ptr %9, align 8
  store ptr %5, ptr %3, align 8
  %10 = load i64, ptr @_ZN11LIR_OprFact10illegalOprE, align 8
  store i64 %10, ptr %6, align 8
  %.not.i.i = icmp eq ptr %5, null
  br i1 %.not.i.i, label %_ZN7LIRItemC2EP11InstructionP12LIRGenerator.exit, label %11

11:                                               ; preds = %2
  tail call void @_ZN12LIRGenerator4walkEP11Instruction(ptr noundef nonnull align 8 dereferenceable(232) %0, ptr noundef nonnull %5) #9
  %12 = getelementptr inbounds i8, ptr %5, i64 48
  %.sroa.0.0.copyload.i.i.i = load i64, ptr %12, align 8
  store i64 %.sroa.0.0.copyload.i.i.i, ptr %6, align 8
  %.pre.i.i = load i64, ptr @_ZN11LIR_OprFact10illegalOprE, align 8
  br label %_ZN7LIRItemC2EP11InstructionP12LIRGenerator.exit

_ZN7LIRItemC2EP11InstructionP12LIRGenerator.exit: ; preds = %2, %11
  %13 = phi i64 [ %.pre.i.i, %11 ], [ %10, %2 ]
  store i64 %13, ptr %7, align 8
  call void @_ZN7LIRItem9load_itemEv(ptr noundef nonnull align 8 dereferenceable(40) %3) #9
  %14 = load i8, ptr %8, align 8
  %15 = trunc i8 %14 to i1
  br i1 %15, label %16, label %_ZN7LIRItem6resultEv.exit

16:                                               ; preds = %_ZN7LIRItemC2EP11InstructionP12LIRGenerator.exit
  %17 = load i64, ptr %6, align 8
  %18 = and i64 %17, 7
  switch i64 %18, label %_ZN7LIRItem6resultEv.exit [
    i64 5, label %19
    i64 3, label %19
  ]

19:                                               ; preds = %16, %16
  %20 = load i64, ptr %7, align 8
  %21 = and i64 %20, 7
  %22 = icmp eq i64 %21, 7
  br i1 %22, label %23, label %_ZN7LIRItem6resultEv.exit

23:                                               ; preds = %19
  %24 = load ptr, ptr %9, align 8
  %25 = load ptr, ptr %3, align 8
  %26 = getelementptr inbounds i8, ptr %25, i64 24
  %27 = load ptr, ptr %26, align 8
  %28 = call noundef zeroext i8 @_Z12as_BasicTypeP9ValueType(ptr noundef %27) #9
  %29 = call i64 @_ZN12LIRGenerator12new_registerE9BasicType(ptr noundef nonnull align 8 dereferenceable(232) %24, i8 noundef zeroext %28) #9
  store i64 %29, ptr %7, align 8
  %30 = load ptr, ptr %9, align 8
  %31 = getelementptr inbounds i8, ptr %30, i64 144
  %32 = load ptr, ptr %31, align 8
  %.sroa.01.0.copyload.i = load i64, ptr %6, align 8
  call void @_ZN8LIR_List4moveE7LIR_OprS0_P12CodeEmitInfo(ptr noundef nonnull align 8 dereferenceable(32) %32, i64 %.sroa.01.0.copyload.i, i64 %29, ptr noundef null)
  br label %_ZN7LIRItem6resultEv.exit

_ZN7LIRItem6resultEv.exit:                        ; preds = %_ZN7LIRItemC2EP11InstructionP12LIRGenerator.exit, %16, %19, %23
  %.sroa.03.0.in.i = phi ptr [ %7, %23 ], [ %7, %19 ], [ %6, %16 ], [ %6, %_ZN7LIRItemC2EP11InstructionP12LIRGenerator.exit ]
  %.sroa.03.0.i = load i64, ptr %.sroa.03.0.in.i, align 8
  %33 = call i64 @_ZN12LIRGenerator5rlockEP11Instruction(ptr noundef nonnull align 8 dereferenceable(232) %0, ptr noundef nonnull %1) #9
  %34 = getelementptr inbounds i8, ptr %0, i64 144
  %35 = load ptr, ptr %34, align 8
  %36 = getelementptr inbounds i8, ptr %1, i64 96
  %37 = load i32, ptr %36, align 8
  call void @_ZN8LIR_List7convertEN9Bytecodes4CodeE7LIR_OprS2_P14ConversionStub(ptr noundef nonnull align 8 dereferenceable(32) %35, i32 noundef %37, i64 %.sroa.03.0.i, i64 %33, ptr noundef null)
  %38 = getelementptr inbounds i8, ptr %1, i64 48
  store i64 %33, ptr %38, align 8
  ret void
}